target datalayout = "e-m:e-p270:32:32-p271:32:32-p272:64:64-i64:64-i128:128-f80:128-n8:16:32:64-S128"
target triple = "x86_64-pc-linux-gnu"

@PyExc_AssertionError = external global ptr, align 8
@.str.142 = private unnamed_addr constant [46 x i8] c"Incorrect result_1: '%s' in '%s' (offset=%zd)\00", align 1
@.str.143 = private unnamed_addr constant [46 x i8] c"Incorrect result_2: '%s' in '%s' (offset=%zd)\00", align 1

; Function Attrs: nounwind uwtable
define internal i32 @check_bytes_find(ptr noundef %0, ptr noundef %1, i32 noundef %2, i64 noundef %3) #0 {
  %5 = alloca i32, align 4
  %6 = alloca ptr, align 8
  %7 = alloca ptr, align 8
  %8 = alloca i32, align 4
  %9 = alloca i64, align 8
  %10 = alloca i64, align 8
  %11 = alloca i64, align 8
  %12 = alloca i64, align 8
  %13 = alloca i32, align 4
  %14 = alloca ptr, align 8
  %15 = alloca ptr, align 8
  %16 = alloca i64, align 8
  store ptr %0, ptr %6, align 8, !tbaa !46
  store ptr %1, ptr %7, align 8, !tbaa !46
  store i32 %2, ptr %8, align 4, !tbaa !26
  store i64 %3, ptr %9, align 8, !tbaa !27
  call void @llvm.lifetime.start.p0(i64 8, ptr %10) #10
  %17 = load ptr, ptr %6, align 8, !tbaa !46
  %18 = call i64 @strlen(ptr noundef %17) #12
  store i64 %18, ptr %10, align 8, !tbaa !27
  call void @llvm.lifetime.start.p0(i64 8, ptr %11) #10
  %19 = load ptr, ptr %7, align 8, !tbaa !46
  %20 = call i64 @strlen(ptr noundef %19) #12
  store i64 %20, ptr %11, align 8, !tbaa !27
  call void @llvm.lifetime.start.p0(i64 8, ptr %12) #10
  %21 = load ptr, ptr %6, align 8, !tbaa !46
  %22 = load i64, ptr %10, align 8, !tbaa !27
  %23 = load ptr, ptr %7, align 8, !tbaa !46
  %24 = load i64, ptr %11, align 8, !tbaa !27
  %25 = load i32, ptr %8, align 4, !tbaa !26
  %26 = sext i32 %25 to i64
  %27 = call i64 @_PyBytes_Find(ptr noundef %21, i64 noundef %22, ptr noundef %23, i64 noundef %24, i64 noundef %26)
  store i64 %27, ptr %12, align 8, !tbaa !27
  %28 = load i64, ptr %12, align 8, !tbaa !27
  %29 = load i64, ptr %9, align 8, !tbaa !27
  %30 = icmp ne i64 %28, %29
  br i1 %30, label %31, label %37

31:                                               ; preds = %4
  %32 = load ptr, ptr @PyExc_AssertionError, align 8, !tbaa !3
  %33 = load ptr, ptr %7, align 8, !tbaa !46
  %34 = load ptr, ptr %6, align 8, !tbaa !46
  %35 = load i32, ptr %8, align 4, !tbaa !26
  %36 = call ptr (ptr, ptr, ...) @PyErr_Format(ptr noundef %32, ptr noundef @.str.142, ptr noundef %33, ptr noundef %34, i32 noundef %35)
  store i32 -1, ptr %5, align 4
  store i32 1, ptr %13, align 4
  br label %81

37:                                               ; preds = %4
  call void @llvm.lifetime.start.p0(i64 8, ptr %14) #10
  %38 = load i64, ptr %10, align 8, !tbaa !27
  %39 = call ptr @PyMem_Malloc(i64 noundef %38)
  store ptr %39, ptr %14, align 8, !tbaa !46
  %40 = load ptr, ptr %14, align 8, !tbaa !46
  %41 = icmp eq ptr %40, null
  br i1 %41, label %42, label %44

42:                                               ; preds = %37
  %43 = call ptr @PyErr_NoMemory()
  store i32 -1, ptr %5, align 4
  store i32 1, ptr %13, align 4
  br label %80

44:                                               ; preds = %37
  call void @llvm.lifetime.start.p0(i64 8, ptr %15) #10
  %45 = load i64, ptr %11, align 8, !tbaa !27
  %46 = call ptr @PyMem_Malloc(i64 noundef %45)
  store ptr %46, ptr %15, align 8, !tbaa !46
  %47 = load ptr, ptr %15, align 8, !tbaa !46
  %48 = icmp eq ptr %47, null
  br i1 %48, label %49, label %52

49:                                               ; preds = %44
  %50 = load ptr, ptr %14, align 8, !tbaa !46
  call void @PyMem_Free(ptr noundef %50)
  %51 = call ptr @PyErr_NoMemory()
  store i32 -1, ptr %5, align 4
  store i32 1, ptr %13, align 4
  br label %79

52:                                               ; preds = %44
  %53 = load ptr, ptr %14, align 8, !tbaa !46
  %54 = load ptr, ptr %6, align 8, !tbaa !46
  %55 = load i64, ptr %10, align 8, !tbaa !27
  call void @llvm.memcpy.p0.p0.i64(ptr align 1 %53, ptr align 1 %54, i64 %55, i1 false)
  %56 = load ptr, ptr %15, align 8, !tbaa !46
  %57 = load ptr, ptr %7, align 8, !tbaa !46
  %58 = load i64, ptr %11, align 8, !tbaa !27
  call void @llvm.memcpy.p0.p0.i64(ptr align 1 %56, ptr align 1 %57, i64 %58, i1 false)
  call void @llvm.lifetime.start.p0(i64 8, ptr %16) #10
  %59 = load ptr, ptr %14, align 8, !tbaa !46
  %60 = load i64, ptr %10, align 8, !tbaa !27
  %61 = load ptr, ptr %15, align 8, !tbaa !46
  %62 = load i64, ptr %11, align 8, !tbaa !27
  %63 = load i32, ptr %8, align 4, !tbaa !26
  %64 = sext i32 %63 to i64
  %65 = call i64 @_PyBytes_Find(ptr noundef %59, i64 noundef %60, ptr noundef %61, i64 noundef %62, i64 noundef %64)
  store i64 %65, ptr %16, align 8, !tbaa !27
  %66 = load ptr, ptr %14, align 8, !tbaa !46
  call void @PyMem_Free(ptr noundef %66)
  %67 = load ptr, ptr %15, align 8, !tbaa !46
  call void @PyMem_Free(ptr noundef %67)
  %68 = load i64, ptr %16, align 8, !tbaa !27
  %69 = load i64, ptr %9, align 8, !tbaa !27
  %70 = icmp ne i64 %68, %69
  br i1 %70, label %71, label %77

71:                                               ; preds = %52
  %72 = load ptr, ptr @PyExc_AssertionError, align 8, !tbaa !3
  %73 = load ptr, ptr %7, align 8, !tbaa !46
  %74 = load ptr, ptr %6, align 8, !tbaa !46
  %75 = load i32, ptr %8, align 4, !tbaa !26
  %76 = call ptr (ptr, ptr, ...) @PyErr_Format(ptr noundef %72, ptr noundef @.str.143, ptr noundef %73, ptr noundef %74, i32 noundef %75)
  store i32 -1, ptr %5, align 4
  store i32 1, ptr %13, align 4
  br label %78

77:                                               ; preds = %52
  store i32 0, ptr %5, align 4
  store i32 1, ptr %13, align 4
  br label %78

78:                                               ; preds = %77, %71
  call void @llvm.lifetime.end.p0(i64 8, ptr %16) #10
  br label %79

79:                                               ; preds = %78, %49
  call void @llvm.lifetime.end.p0(i64 8, ptr %15) #10
  br label %80

80:                                               ; preds = %79, %42
  call void @llvm.lifetime.end.p0(i64 8, ptr %14) #10
  br label %81

81:                                               ; preds = %80, %31
  call void @llvm.lifetime.end.p0(i64 8, ptr %12) #10
  call void @llvm.lifetime.end.p0(i64 8, ptr %11) #10
  call void @llvm.lifetime.end.p0(i64 8, ptr %10) #10
  %82 = load i32, ptr %5, align 4
  ret i32 %82
}