; Function Attrs: nounwind uwtable
define internal fastcc range(i32 -1, 1) i32 @check_bytes_find(ptr noundef %0, ptr noundef %1, i32 noundef range(i32 0, 7) %2, i64 noundef range(i64 -1, 31) %3) unnamed_addr #0 {
  %5 = tail call i64 @strlen(ptr noundef nonnull dereferenceable(1) %0) #13
  %6 = tail call i64 @strlen(ptr noundef nonnull dereferenceable(1) %1) #13
  %7 = zext nneg i32 %2 to i64
  %8 = tail call i64 @_PyBytes_Find(ptr noundef nonnull %0, i64 noundef %5, ptr noundef nonnull %1, i64 noundef %6, i64 noundef %7) #11
  %.not = icmp eq i64 %8, %3
  br i1 %.not, label %12, label %9

9:                                                ; preds = %4
  %10 = load ptr, ptr @PyExc_AssertionError, align 8, !tbaa !9
  %11 = tail call ptr (ptr, ptr, ...) @PyErr_Format(ptr noundef %10, ptr noundef nonnull @.str.142, ptr noundef nonnull %1, ptr noundef nonnull %0, i32 noundef %2) #11
  br label %27

12:                                               ; preds = %4
  %13 = tail call ptr @PyMem_Malloc(i64 noundef %5) #11
  %14 = icmp eq ptr %13, null
  br i1 %14, label %15, label %17

15:                                               ; preds = %12
  %16 = tail call ptr @PyErr_NoMemory() #11
  br label %27

17:                                               ; preds = %12
  %18 = tail call ptr @PyMem_Malloc(i64 noundef %6) #11
  %19 = icmp eq ptr %18, null
  br i1 %19, label %20, label %22

20:                                               ; preds = %17
  tail call void @PyMem_Free(ptr noundef nonnull %13) #11
  %21 = tail call ptr @PyErr_NoMemory() #11
  br label %27

22:                                               ; preds = %17
  tail call void @llvm.memcpy.p0.p0.i64(ptr nonnull align 1 %13, ptr nonnull align 1 %0, i64 %5, i1 false)
  tail call void @llvm.memcpy.p0.p0.i64(ptr nonnull align 1 %18, ptr nonnull align 1 %1, i64 %6, i1 false)
  %23 = tail call i64 @_PyBytes_Find(ptr noundef nonnull %13, i64 noundef %5, ptr noundef nonnull %18, i64 noundef %6, i64 noundef %7) #11
  tail call void @PyMem_Free(ptr noundef nonnull %13) #11
  tail call void @PyMem_Free(ptr noundef nonnull %18) #11
  %.not38 = icmp eq i64 %23, %3
  br i1 %.not38, label %27, label %24

24:                                               ; preds = %22
  %25 = load ptr, ptr @PyExc_AssertionError, align 8, !tbaa !9
  %26 = tail call ptr (ptr, ptr, ...) @PyErr_Format(ptr noundef %25, ptr noundef nonnull @.str.143, ptr noundef nonnull %1, ptr noundef nonnull %0, i32 noundef %2) #11
  br label %27

27:                                               ; preds = %15, %24, %22, %20, %9
  %.0 = phi i32 [ -1, %9 ], [ -1, %15 ], [ -1, %20 ], [ -1, %24 ], [ 0, %22 ]
  ret i32 %.0
}